ARM GAS  /tmp/cclFlhYz.s 			page 1


   1              		.cpu cortex-m0
   2              		.eabi_attribute 20, 1
   3              		.eabi_attribute 21, 1
   4              		.eabi_attribute 23, 3
   5              		.eabi_attribute 24, 1
   6              		.eabi_attribute 25, 1
   7              		.eabi_attribute 26, 1
   8              		.eabi_attribute 30, 4
   9              		.eabi_attribute 34, 0
  10              		.eabi_attribute 18, 4
  11              		.file	"stm32f0xx_hal_msp.c"
  12              		.text
  13              	.Ltext0:
  14              		.cfi_sections	.debug_frame
  15              		.section	.text.HAL_MspInit,"ax",%progbits
  16              		.align	1
  17              		.global	HAL_MspInit
  18              		.syntax unified
  19              		.code	16
  20              		.thumb_func
  21              		.fpu softvfp
  23              	HAL_MspInit:
  24              	.LFB35:
  25              		.file 1 "Src/stm32f0xx_hal_msp.c"
   1:Src/stm32f0xx_hal_msp.c **** /**
   2:Src/stm32f0xx_hal_msp.c ****   ******************************************************************************
   3:Src/stm32f0xx_hal_msp.c ****   * File Name          : stm32f0xx_hal_msp.c
   4:Src/stm32f0xx_hal_msp.c ****   * Description        : This file provides code for the MSP Initialization 
   5:Src/stm32f0xx_hal_msp.c ****   *                      and de-Initialization codes.
   6:Src/stm32f0xx_hal_msp.c ****   ******************************************************************************
   7:Src/stm32f0xx_hal_msp.c ****   ** This notice applies to any and all portions of this file
   8:Src/stm32f0xx_hal_msp.c ****   * that are not between comment pairs USER CODE BEGIN and
   9:Src/stm32f0xx_hal_msp.c ****   * USER CODE END. Other portions of this file, whether 
  10:Src/stm32f0xx_hal_msp.c ****   * inserted by the user or by software development tools
  11:Src/stm32f0xx_hal_msp.c ****   * are owned by their respective copyright owners.
  12:Src/stm32f0xx_hal_msp.c ****   *
  13:Src/stm32f0xx_hal_msp.c ****   * COPYRIGHT(c) 2019 STMicroelectronics
  14:Src/stm32f0xx_hal_msp.c ****   *
  15:Src/stm32f0xx_hal_msp.c ****   * Redistribution and use in source and binary forms, with or without modification,
  16:Src/stm32f0xx_hal_msp.c ****   * are permitted provided that the following conditions are met:
  17:Src/stm32f0xx_hal_msp.c ****   *   1. Redistributions of source code must retain the above copyright notice,
  18:Src/stm32f0xx_hal_msp.c ****   *      this list of conditions and the following disclaimer.
  19:Src/stm32f0xx_hal_msp.c ****   *   2. Redistributions in binary form must reproduce the above copyright notice,
  20:Src/stm32f0xx_hal_msp.c ****   *      this list of conditions and the following disclaimer in the documentation
  21:Src/stm32f0xx_hal_msp.c ****   *      and/or other materials provided with the distribution.
  22:Src/stm32f0xx_hal_msp.c ****   *   3. Neither the name of STMicroelectronics nor the names of its contributors
  23:Src/stm32f0xx_hal_msp.c ****   *      may be used to endorse or promote products derived from this software
  24:Src/stm32f0xx_hal_msp.c ****   *      without specific prior written permission.
  25:Src/stm32f0xx_hal_msp.c ****   *
  26:Src/stm32f0xx_hal_msp.c ****   * THIS SOFTWARE IS PROVIDED BY THE COPYRIGHT HOLDERS AND CONTRIBUTORS "AS IS"
  27:Src/stm32f0xx_hal_msp.c ****   * AND ANY EXPRESS OR IMPLIED WARRANTIES, INCLUDING, BUT NOT LIMITED TO, THE
  28:Src/stm32f0xx_hal_msp.c ****   * IMPLIED WARRANTIES OF MERCHANTABILITY AND FITNESS FOR A PARTICULAR PURPOSE ARE
  29:Src/stm32f0xx_hal_msp.c ****   * DISCLAIMED. IN NO EVENT SHALL THE COPYRIGHT HOLDER OR CONTRIBUTORS BE LIABLE
  30:Src/stm32f0xx_hal_msp.c ****   * FOR ANY DIRECT, INDIRECT, INCIDENTAL, SPECIAL, EXEMPLARY, OR CONSEQUENTIAL
  31:Src/stm32f0xx_hal_msp.c ****   * DAMAGES (INCLUDING, BUT NOT LIMITED TO, PROCUREMENT OF SUBSTITUTE GOODS OR
  32:Src/stm32f0xx_hal_msp.c ****   * SERVICES; LOSS OF USE, DATA, OR PROFITS; OR BUSINESS INTERRUPTION) HOWEVER
  33:Src/stm32f0xx_hal_msp.c ****   * CAUSED AND ON ANY THEORY OF LIABILITY, WHETHER IN CONTRACT, STRICT LIABILITY,
ARM GAS  /tmp/cclFlhYz.s 			page 2


  34:Src/stm32f0xx_hal_msp.c ****   * OR TORT (INCLUDING NEGLIGENCE OR OTHERWISE) ARISING IN ANY WAY OUT OF THE USE
  35:Src/stm32f0xx_hal_msp.c ****   * OF THIS SOFTWARE, EVEN IF ADVISED OF THE POSSIBILITY OF SUCH DAMAGE.
  36:Src/stm32f0xx_hal_msp.c ****   *
  37:Src/stm32f0xx_hal_msp.c ****   ******************************************************************************
  38:Src/stm32f0xx_hal_msp.c ****   */
  39:Src/stm32f0xx_hal_msp.c **** /* Includes ------------------------------------------------------------------*/
  40:Src/stm32f0xx_hal_msp.c **** #include "stm32f0xx_hal.h"
  41:Src/stm32f0xx_hal_msp.c **** 
  42:Src/stm32f0xx_hal_msp.c **** extern void _Error_Handler(char *, int);
  43:Src/stm32f0xx_hal_msp.c **** /* USER CODE BEGIN 0 */
  44:Src/stm32f0xx_hal_msp.c **** 
  45:Src/stm32f0xx_hal_msp.c **** /* USER CODE END 0 */
  46:Src/stm32f0xx_hal_msp.c **** /**
  47:Src/stm32f0xx_hal_msp.c ****   * Initializes the Global MSP.
  48:Src/stm32f0xx_hal_msp.c ****   */
  49:Src/stm32f0xx_hal_msp.c **** void HAL_MspInit(void)
  50:Src/stm32f0xx_hal_msp.c **** {
  26              		.loc 1 50 0
  27              		.cfi_startproc
  28              		@ args = 0, pretend = 0, frame = 8
  29              		@ frame_needed = 0, uses_anonymous_args = 0
  30 0000 07B5     		push	{r0, r1, r2, lr}
  31              	.LCFI0:
  32              		.cfi_def_cfa_offset 16
  33              		.cfi_offset 0, -16
  34              		.cfi_offset 1, -12
  35              		.cfi_offset 2, -8
  36              		.cfi_offset 14, -4
  37              	.LBB2:
  51:Src/stm32f0xx_hal_msp.c ****   /* USER CODE BEGIN MspInit 0 */
  52:Src/stm32f0xx_hal_msp.c **** 
  53:Src/stm32f0xx_hal_msp.c ****   /* USER CODE END MspInit 0 */
  54:Src/stm32f0xx_hal_msp.c **** 
  55:Src/stm32f0xx_hal_msp.c ****   __HAL_RCC_SYSCFG_CLK_ENABLE();
  38              		.loc 1 55 0
  39 0002 0120     		movs	r0, #1
  40 0004 0C4A     		ldr	r2, .L2
  41              	.LBE2:
  56:Src/stm32f0xx_hal_msp.c **** 
  57:Src/stm32f0xx_hal_msp.c ****   /* System interrupt init*/
  58:Src/stm32f0xx_hal_msp.c ****   /* SVC_IRQn interrupt configuration */
  59:Src/stm32f0xx_hal_msp.c ****   HAL_NVIC_SetPriority(SVC_IRQn, 0, 0);
  60:Src/stm32f0xx_hal_msp.c ****   /* PendSV_IRQn interrupt configuration */
  61:Src/stm32f0xx_hal_msp.c ****   HAL_NVIC_SetPriority(PendSV_IRQn, 0, 0);
  62:Src/stm32f0xx_hal_msp.c ****   /* SysTick_IRQn interrupt configuration */
  63:Src/stm32f0xx_hal_msp.c ****   HAL_NVIC_SetPriority(SysTick_IRQn, 0, 0);
  64:Src/stm32f0xx_hal_msp.c **** 
  65:Src/stm32f0xx_hal_msp.c ****   /* USER CODE BEGIN MspInit 1 */
  66:Src/stm32f0xx_hal_msp.c **** 
  67:Src/stm32f0xx_hal_msp.c ****   /* USER CODE END MspInit 1 */
  68:Src/stm32f0xx_hal_msp.c **** }
  42              		.loc 1 68 0
  43              		@ sp needed
  44              	.LBB3:
  55:Src/stm32f0xx_hal_msp.c **** 
  45              		.loc 1 55 0
  46 0006 9169     		ldr	r1, [r2, #24]
ARM GAS  /tmp/cclFlhYz.s 			page 3


  47 0008 0143     		orrs	r1, r0
  48 000a 9161     		str	r1, [r2, #24]
  49 000c 9369     		ldr	r3, [r2, #24]
  50              	.LBE3:
  59:Src/stm32f0xx_hal_msp.c ****   /* PendSV_IRQn interrupt configuration */
  51              		.loc 1 59 0
  52 000e 0022     		movs	r2, #0
  53              	.LBB4:
  55:Src/stm32f0xx_hal_msp.c **** 
  54              		.loc 1 55 0
  55 0010 0340     		ands	r3, r0
  56              	.LBE4:
  59:Src/stm32f0xx_hal_msp.c ****   /* PendSV_IRQn interrupt configuration */
  57              		.loc 1 59 0
  58 0012 1100     		movs	r1, r2
  59              	.LBB5:
  55:Src/stm32f0xx_hal_msp.c **** 
  60              		.loc 1 55 0
  61 0014 0193     		str	r3, [sp, #4]
  62              	.LBE5:
  59:Src/stm32f0xx_hal_msp.c ****   /* PendSV_IRQn interrupt configuration */
  63              		.loc 1 59 0
  64 0016 0638     		subs	r0, r0, #6
  65              	.LBB6:
  55:Src/stm32f0xx_hal_msp.c **** 
  66              		.loc 1 55 0
  67 0018 019B     		ldr	r3, [sp, #4]
  68              	.LBE6:
  59:Src/stm32f0xx_hal_msp.c ****   /* PendSV_IRQn interrupt configuration */
  69              		.loc 1 59 0
  70 001a FFF7FEFF 		bl	HAL_NVIC_SetPriority
  71              	.LVL0:
  61:Src/stm32f0xx_hal_msp.c ****   /* SysTick_IRQn interrupt configuration */
  72              		.loc 1 61 0
  73 001e 0022     		movs	r2, #0
  74 0020 0220     		movs	r0, #2
  75 0022 1100     		movs	r1, r2
  76 0024 4042     		rsbs	r0, r0, #0
  77 0026 FFF7FEFF 		bl	HAL_NVIC_SetPriority
  78              	.LVL1:
  63:Src/stm32f0xx_hal_msp.c **** 
  79              		.loc 1 63 0
  80 002a 0022     		movs	r2, #0
  81 002c 0120     		movs	r0, #1
  82 002e 1100     		movs	r1, r2
  83 0030 4042     		rsbs	r0, r0, #0
  84 0032 FFF7FEFF 		bl	HAL_NVIC_SetPriority
  85              	.LVL2:
  86              		.loc 1 68 0
  87 0036 07BD     		pop	{r0, r1, r2, pc}
  88              	.L3:
  89              		.align	2
  90              	.L2:
  91 0038 00100240 		.word	1073876992
  92              		.cfi_endproc
  93              	.LFE35:
  95              		.section	.text.HAL_ADC_MspInit,"ax",%progbits
ARM GAS  /tmp/cclFlhYz.s 			page 4


  96              		.align	1
  97              		.global	HAL_ADC_MspInit
  98              		.syntax unified
  99              		.code	16
 100              		.thumb_func
 101              		.fpu softvfp
 103              	HAL_ADC_MspInit:
 104              	.LFB36:
  69:Src/stm32f0xx_hal_msp.c **** 
  70:Src/stm32f0xx_hal_msp.c **** void HAL_ADC_MspInit(ADC_HandleTypeDef* hadc)
  71:Src/stm32f0xx_hal_msp.c **** {
 105              		.loc 1 71 0
 106              		.cfi_startproc
 107              		@ args = 0, pretend = 0, frame = 24
 108              		@ frame_needed = 0, uses_anonymous_args = 0
 109              	.LVL3:
 110 0000 7FB5     		push	{r0, r1, r2, r3, r4, r5, r6, lr}
 111              	.LCFI1:
 112              		.cfi_def_cfa_offset 32
 113              		.cfi_offset 0, -32
 114              		.cfi_offset 1, -28
 115              		.cfi_offset 2, -24
 116              		.cfi_offset 3, -20
 117              		.cfi_offset 4, -16
 118              		.cfi_offset 5, -12
 119              		.cfi_offset 6, -8
 120              		.cfi_offset 14, -4
  72:Src/stm32f0xx_hal_msp.c **** 
  73:Src/stm32f0xx_hal_msp.c ****   GPIO_InitTypeDef GPIO_InitStruct;
  74:Src/stm32f0xx_hal_msp.c ****   if(hadc->Instance==ADC1)
 121              		.loc 1 74 0
 122 0002 0D4B     		ldr	r3, .L6
 123 0004 0268     		ldr	r2, [r0]
 124 0006 9A42     		cmp	r2, r3
 125 0008 13D1     		bne	.L4
 126              	.LBB7:
  75:Src/stm32f0xx_hal_msp.c ****   {
  76:Src/stm32f0xx_hal_msp.c ****   /* USER CODE BEGIN ADC1_MspInit 0 */
  77:Src/stm32f0xx_hal_msp.c **** 
  78:Src/stm32f0xx_hal_msp.c ****   /* USER CODE END ADC1_MspInit 0 */
  79:Src/stm32f0xx_hal_msp.c ****     /* Peripheral clock enable */
  80:Src/stm32f0xx_hal_msp.c ****     __HAL_RCC_ADC1_CLK_ENABLE();
 127              		.loc 1 80 0
 128 000a 8020     		movs	r0, #128
 129              	.LVL4:
 130 000c 0B4A     		ldr	r2, .L6+4
 131 000e 8000     		lsls	r0, r0, #2
 132 0010 9169     		ldr	r1, [r2, #24]
 133 0012 0143     		orrs	r1, r0
 134 0014 9161     		str	r1, [r2, #24]
 135 0016 9369     		ldr	r3, [r2, #24]
 136              	.LBE7:
  81:Src/stm32f0xx_hal_msp.c ****   
  82:Src/stm32f0xx_hal_msp.c ****     /**ADC GPIO Configuration    
  83:Src/stm32f0xx_hal_msp.c ****     PA0     ------> ADC_IN0
  84:Src/stm32f0xx_hal_msp.c ****     PA1     ------> ADC_IN1 
  85:Src/stm32f0xx_hal_msp.c ****     */
ARM GAS  /tmp/cclFlhYz.s 			page 5


  86:Src/stm32f0xx_hal_msp.c ****     GPIO_InitStruct.Pin = IN_X1_Pin|IN_X10_Pin;
  87:Src/stm32f0xx_hal_msp.c ****     GPIO_InitStruct.Mode = GPIO_MODE_ANALOG;
  88:Src/stm32f0xx_hal_msp.c ****     GPIO_InitStruct.Pull = GPIO_NOPULL;
  89:Src/stm32f0xx_hal_msp.c ****     HAL_GPIO_Init(GPIOA, &GPIO_InitStruct);
 137              		.loc 1 89 0
 138 0018 01A9     		add	r1, sp, #4
 139              	.LBB8:
  80:Src/stm32f0xx_hal_msp.c ****   
 140              		.loc 1 80 0
 141 001a 0340     		ands	r3, r0
 142 001c 0093     		str	r3, [sp]
 143 001e 009B     		ldr	r3, [sp]
 144              	.LBE8:
  86:Src/stm32f0xx_hal_msp.c ****     GPIO_InitStruct.Mode = GPIO_MODE_ANALOG;
 145              		.loc 1 86 0
 146 0020 0323     		movs	r3, #3
 147              		.loc 1 89 0
 148 0022 9020     		movs	r0, #144
  86:Src/stm32f0xx_hal_msp.c ****     GPIO_InitStruct.Mode = GPIO_MODE_ANALOG;
 149              		.loc 1 86 0
 150 0024 0193     		str	r3, [sp, #4]
  87:Src/stm32f0xx_hal_msp.c ****     GPIO_InitStruct.Pull = GPIO_NOPULL;
 151              		.loc 1 87 0
 152 0026 0293     		str	r3, [sp, #8]
  88:Src/stm32f0xx_hal_msp.c ****     HAL_GPIO_Init(GPIOA, &GPIO_InitStruct);
 153              		.loc 1 88 0
 154 0028 0023     		movs	r3, #0
 155              		.loc 1 89 0
 156 002a C005     		lsls	r0, r0, #23
  88:Src/stm32f0xx_hal_msp.c ****     HAL_GPIO_Init(GPIOA, &GPIO_InitStruct);
 157              		.loc 1 88 0
 158 002c 0393     		str	r3, [sp, #12]
 159              		.loc 1 89 0
 160 002e FFF7FEFF 		bl	HAL_GPIO_Init
 161              	.LVL5:
 162              	.L4:
  90:Src/stm32f0xx_hal_msp.c **** 
  91:Src/stm32f0xx_hal_msp.c ****   /* USER CODE BEGIN ADC1_MspInit 1 */
  92:Src/stm32f0xx_hal_msp.c **** 
  93:Src/stm32f0xx_hal_msp.c ****   /* USER CODE END ADC1_MspInit 1 */
  94:Src/stm32f0xx_hal_msp.c ****   }
  95:Src/stm32f0xx_hal_msp.c **** 
  96:Src/stm32f0xx_hal_msp.c **** }
 163              		.loc 1 96 0
 164 0032 07B0     		add	sp, sp, #28
 165              		@ sp needed
 166 0034 00BD     		pop	{pc}
 167              	.L7:
 168 0036 C046     		.align	2
 169              	.L6:
 170 0038 00240140 		.word	1073816576
 171 003c 00100240 		.word	1073876992
 172              		.cfi_endproc
 173              	.LFE36:
 175              		.section	.text.HAL_ADC_MspDeInit,"ax",%progbits
 176              		.align	1
 177              		.global	HAL_ADC_MspDeInit
ARM GAS  /tmp/cclFlhYz.s 			page 6


 178              		.syntax unified
 179              		.code	16
 180              		.thumb_func
 181              		.fpu softvfp
 183              	HAL_ADC_MspDeInit:
 184              	.LFB37:
  97:Src/stm32f0xx_hal_msp.c **** 
  98:Src/stm32f0xx_hal_msp.c **** void HAL_ADC_MspDeInit(ADC_HandleTypeDef* hadc)
  99:Src/stm32f0xx_hal_msp.c **** {
 185              		.loc 1 99 0
 186              		.cfi_startproc
 187              		@ args = 0, pretend = 0, frame = 0
 188              		@ frame_needed = 0, uses_anonymous_args = 0
 189              	.LVL6:
 100:Src/stm32f0xx_hal_msp.c **** 
 101:Src/stm32f0xx_hal_msp.c ****   if(hadc->Instance==ADC1)
 190              		.loc 1 101 0
 191 0000 074B     		ldr	r3, .L10
 192 0002 0268     		ldr	r2, [r0]
  99:Src/stm32f0xx_hal_msp.c **** 
 193              		.loc 1 99 0
 194 0004 10B5     		push	{r4, lr}
 195              	.LCFI2:
 196              		.cfi_def_cfa_offset 8
 197              		.cfi_offset 4, -8
 198              		.cfi_offset 14, -4
 199              		.loc 1 101 0
 200 0006 9A42     		cmp	r2, r3
 201 0008 09D1     		bne	.L8
 102:Src/stm32f0xx_hal_msp.c ****   {
 103:Src/stm32f0xx_hal_msp.c ****   /* USER CODE BEGIN ADC1_MspDeInit 0 */
 104:Src/stm32f0xx_hal_msp.c **** 
 105:Src/stm32f0xx_hal_msp.c ****   /* USER CODE END ADC1_MspDeInit 0 */
 106:Src/stm32f0xx_hal_msp.c ****     /* Peripheral clock disable */
 107:Src/stm32f0xx_hal_msp.c ****     __HAL_RCC_ADC1_CLK_DISABLE();
 108:Src/stm32f0xx_hal_msp.c ****   
 109:Src/stm32f0xx_hal_msp.c ****     /**ADC GPIO Configuration    
 110:Src/stm32f0xx_hal_msp.c ****     PA0     ------> ADC_IN0
 111:Src/stm32f0xx_hal_msp.c ****     PA1     ------> ADC_IN1 
 112:Src/stm32f0xx_hal_msp.c ****     */
 113:Src/stm32f0xx_hal_msp.c ****     HAL_GPIO_DeInit(GPIOA, IN_X1_Pin|IN_X10_Pin);
 202              		.loc 1 113 0
 203 000a 9020     		movs	r0, #144
 204              	.LVL7:
 107:Src/stm32f0xx_hal_msp.c ****   
 205              		.loc 1 107 0
 206 000c 054A     		ldr	r2, .L10+4
 207 000e 0649     		ldr	r1, .L10+8
 208 0010 9369     		ldr	r3, [r2, #24]
 209              		.loc 1 113 0
 210 0012 C005     		lsls	r0, r0, #23
 107:Src/stm32f0xx_hal_msp.c ****   
 211              		.loc 1 107 0
 212 0014 0B40     		ands	r3, r1
 213 0016 9361     		str	r3, [r2, #24]
 214              		.loc 1 113 0
 215 0018 0321     		movs	r1, #3
ARM GAS  /tmp/cclFlhYz.s 			page 7


 216 001a FFF7FEFF 		bl	HAL_GPIO_DeInit
 217              	.LVL8:
 218              	.L8:
 114:Src/stm32f0xx_hal_msp.c **** 
 115:Src/stm32f0xx_hal_msp.c ****   /* USER CODE BEGIN ADC1_MspDeInit 1 */
 116:Src/stm32f0xx_hal_msp.c **** 
 117:Src/stm32f0xx_hal_msp.c ****   /* USER CODE END ADC1_MspDeInit 1 */
 118:Src/stm32f0xx_hal_msp.c ****   }
 119:Src/stm32f0xx_hal_msp.c **** 
 120:Src/stm32f0xx_hal_msp.c **** }
 219              		.loc 1 120 0
 220              		@ sp needed
 221 001e 10BD     		pop	{r4, pc}
 222              	.L11:
 223              		.align	2
 224              	.L10:
 225 0020 00240140 		.word	1073816576
 226 0024 00100240 		.word	1073876992
 227 0028 FFFDFFFF 		.word	-513
 228              		.cfi_endproc
 229              	.LFE37:
 231              		.section	.text.HAL_UART_MspInit,"ax",%progbits
 232              		.align	1
 233              		.global	HAL_UART_MspInit
 234              		.syntax unified
 235              		.code	16
 236              		.thumb_func
 237              		.fpu softvfp
 239              	HAL_UART_MspInit:
 240              	.LFB38:
 121:Src/stm32f0xx_hal_msp.c **** 
 122:Src/stm32f0xx_hal_msp.c **** void HAL_UART_MspInit(UART_HandleTypeDef* huart)
 123:Src/stm32f0xx_hal_msp.c **** {
 241              		.loc 1 123 0
 242              		.cfi_startproc
 243              		@ args = 0, pretend = 0, frame = 24
 244              		@ frame_needed = 0, uses_anonymous_args = 0
 245              	.LVL9:
 246 0000 7FB5     		push	{r0, r1, r2, r3, r4, r5, r6, lr}
 247              	.LCFI3:
 248              		.cfi_def_cfa_offset 32
 249              		.cfi_offset 0, -32
 250              		.cfi_offset 1, -28
 251              		.cfi_offset 2, -24
 252              		.cfi_offset 3, -20
 253              		.cfi_offset 4, -16
 254              		.cfi_offset 5, -12
 255              		.cfi_offset 6, -8
 256              		.cfi_offset 14, -4
 124:Src/stm32f0xx_hal_msp.c **** 
 125:Src/stm32f0xx_hal_msp.c ****   GPIO_InitTypeDef GPIO_InitStruct;
 126:Src/stm32f0xx_hal_msp.c ****   if(huart->Instance==USART1)
 257              		.loc 1 126 0
 258 0002 0F4B     		ldr	r3, .L14
 259 0004 0268     		ldr	r2, [r0]
 260 0006 9A42     		cmp	r2, r3
 261 0008 18D1     		bne	.L12
ARM GAS  /tmp/cclFlhYz.s 			page 8


 262              	.LBB9:
 127:Src/stm32f0xx_hal_msp.c ****   {
 128:Src/stm32f0xx_hal_msp.c ****   /* USER CODE BEGIN USART1_MspInit 0 */
 129:Src/stm32f0xx_hal_msp.c **** 
 130:Src/stm32f0xx_hal_msp.c ****   /* USER CODE END USART1_MspInit 0 */
 131:Src/stm32f0xx_hal_msp.c ****     /* Peripheral clock enable */
 132:Src/stm32f0xx_hal_msp.c ****     __HAL_RCC_USART1_CLK_ENABLE();
 263              		.loc 1 132 0
 264 000a 8020     		movs	r0, #128
 265              	.LVL10:
 266 000c 0D4A     		ldr	r2, .L14+4
 267 000e C001     		lsls	r0, r0, #7
 268 0010 9169     		ldr	r1, [r2, #24]
 269 0012 0143     		orrs	r1, r0
 270 0014 9161     		str	r1, [r2, #24]
 271 0016 9369     		ldr	r3, [r2, #24]
 272              	.LBE9:
 133:Src/stm32f0xx_hal_msp.c ****   
 134:Src/stm32f0xx_hal_msp.c ****     /**USART1 GPIO Configuration    
 135:Src/stm32f0xx_hal_msp.c ****     PA2     ------> USART1_TX 
 136:Src/stm32f0xx_hal_msp.c ****     */
 137:Src/stm32f0xx_hal_msp.c ****     GPIO_InitStruct.Pin = GPIO_PIN_2;
 138:Src/stm32f0xx_hal_msp.c ****     GPIO_InitStruct.Mode = GPIO_MODE_AF_PP;
 139:Src/stm32f0xx_hal_msp.c ****     GPIO_InitStruct.Pull = GPIO_NOPULL;
 140:Src/stm32f0xx_hal_msp.c ****     GPIO_InitStruct.Speed = GPIO_SPEED_FREQ_HIGH;
 141:Src/stm32f0xx_hal_msp.c ****     GPIO_InitStruct.Alternate = GPIO_AF1_USART1;
 142:Src/stm32f0xx_hal_msp.c ****     HAL_GPIO_Init(GPIOA, &GPIO_InitStruct);
 273              		.loc 1 142 0
 274 0018 01A9     		add	r1, sp, #4
 275              	.LBB10:
 132:Src/stm32f0xx_hal_msp.c ****   
 276              		.loc 1 132 0
 277 001a 0340     		ands	r3, r0
 278 001c 0093     		str	r3, [sp]
 279 001e 009B     		ldr	r3, [sp]
 280              	.LBE10:
 137:Src/stm32f0xx_hal_msp.c ****     GPIO_InitStruct.Mode = GPIO_MODE_AF_PP;
 281              		.loc 1 137 0
 282 0020 0423     		movs	r3, #4
 283 0022 0193     		str	r3, [sp, #4]
 138:Src/stm32f0xx_hal_msp.c ****     GPIO_InitStruct.Pull = GPIO_NOPULL;
 284              		.loc 1 138 0
 285 0024 023B     		subs	r3, r3, #2
 286 0026 0293     		str	r3, [sp, #8]
 139:Src/stm32f0xx_hal_msp.c ****     GPIO_InitStruct.Speed = GPIO_SPEED_FREQ_HIGH;
 287              		.loc 1 139 0
 288 0028 0023     		movs	r3, #0
 289              		.loc 1 142 0
 290 002a 9020     		movs	r0, #144
 139:Src/stm32f0xx_hal_msp.c ****     GPIO_InitStruct.Speed = GPIO_SPEED_FREQ_HIGH;
 291              		.loc 1 139 0
 292 002c 0393     		str	r3, [sp, #12]
 140:Src/stm32f0xx_hal_msp.c ****     GPIO_InitStruct.Alternate = GPIO_AF1_USART1;
 293              		.loc 1 140 0
 294 002e 0333     		adds	r3, r3, #3
 295 0030 0493     		str	r3, [sp, #16]
 296              		.loc 1 142 0
ARM GAS  /tmp/cclFlhYz.s 			page 9


 297 0032 C005     		lsls	r0, r0, #23
 141:Src/stm32f0xx_hal_msp.c ****     HAL_GPIO_Init(GPIOA, &GPIO_InitStruct);
 298              		.loc 1 141 0
 299 0034 023B     		subs	r3, r3, #2
 300 0036 0593     		str	r3, [sp, #20]
 301              		.loc 1 142 0
 302 0038 FFF7FEFF 		bl	HAL_GPIO_Init
 303              	.LVL11:
 304              	.L12:
 143:Src/stm32f0xx_hal_msp.c **** 
 144:Src/stm32f0xx_hal_msp.c ****   /* USER CODE BEGIN USART1_MspInit 1 */
 145:Src/stm32f0xx_hal_msp.c **** 
 146:Src/stm32f0xx_hal_msp.c ****   /* USER CODE END USART1_MspInit 1 */
 147:Src/stm32f0xx_hal_msp.c ****   }
 148:Src/stm32f0xx_hal_msp.c **** 
 149:Src/stm32f0xx_hal_msp.c **** }
 305              		.loc 1 149 0
 306 003c 07B0     		add	sp, sp, #28
 307              		@ sp needed
 308 003e 00BD     		pop	{pc}
 309              	.L15:
 310              		.align	2
 311              	.L14:
 312 0040 00380140 		.word	1073821696
 313 0044 00100240 		.word	1073876992
 314              		.cfi_endproc
 315              	.LFE38:
 317              		.section	.text.HAL_UART_MspDeInit,"ax",%progbits
 318              		.align	1
 319              		.global	HAL_UART_MspDeInit
 320              		.syntax unified
 321              		.code	16
 322              		.thumb_func
 323              		.fpu softvfp
 325              	HAL_UART_MspDeInit:
 326              	.LFB39:
 150:Src/stm32f0xx_hal_msp.c **** 
 151:Src/stm32f0xx_hal_msp.c **** void HAL_UART_MspDeInit(UART_HandleTypeDef* huart)
 152:Src/stm32f0xx_hal_msp.c **** {
 327              		.loc 1 152 0
 328              		.cfi_startproc
 329              		@ args = 0, pretend = 0, frame = 0
 330              		@ frame_needed = 0, uses_anonymous_args = 0
 331              	.LVL12:
 153:Src/stm32f0xx_hal_msp.c **** 
 154:Src/stm32f0xx_hal_msp.c ****   if(huart->Instance==USART1)
 332              		.loc 1 154 0
 333 0000 074B     		ldr	r3, .L18
 334 0002 0268     		ldr	r2, [r0]
 152:Src/stm32f0xx_hal_msp.c **** 
 335              		.loc 1 152 0
 336 0004 10B5     		push	{r4, lr}
 337              	.LCFI4:
 338              		.cfi_def_cfa_offset 8
 339              		.cfi_offset 4, -8
 340              		.cfi_offset 14, -4
 341              		.loc 1 154 0
ARM GAS  /tmp/cclFlhYz.s 			page 10


 342 0006 9A42     		cmp	r2, r3
 343 0008 09D1     		bne	.L16
 155:Src/stm32f0xx_hal_msp.c ****   {
 156:Src/stm32f0xx_hal_msp.c ****   /* USER CODE BEGIN USART1_MspDeInit 0 */
 157:Src/stm32f0xx_hal_msp.c **** 
 158:Src/stm32f0xx_hal_msp.c ****   /* USER CODE END USART1_MspDeInit 0 */
 159:Src/stm32f0xx_hal_msp.c ****     /* Peripheral clock disable */
 160:Src/stm32f0xx_hal_msp.c ****     __HAL_RCC_USART1_CLK_DISABLE();
 161:Src/stm32f0xx_hal_msp.c ****   
 162:Src/stm32f0xx_hal_msp.c ****     /**USART1 GPIO Configuration    
 163:Src/stm32f0xx_hal_msp.c ****     PA2     ------> USART1_TX 
 164:Src/stm32f0xx_hal_msp.c ****     */
 165:Src/stm32f0xx_hal_msp.c ****     HAL_GPIO_DeInit(GPIOA, GPIO_PIN_2);
 344              		.loc 1 165 0
 345 000a 9020     		movs	r0, #144
 346              	.LVL13:
 160:Src/stm32f0xx_hal_msp.c ****   
 347              		.loc 1 160 0
 348 000c 054A     		ldr	r2, .L18+4
 349 000e 0649     		ldr	r1, .L18+8
 350 0010 9369     		ldr	r3, [r2, #24]
 351              		.loc 1 165 0
 352 0012 C005     		lsls	r0, r0, #23
 160:Src/stm32f0xx_hal_msp.c ****   
 353              		.loc 1 160 0
 354 0014 0B40     		ands	r3, r1
 355 0016 9361     		str	r3, [r2, #24]
 356              		.loc 1 165 0
 357 0018 0421     		movs	r1, #4
 358 001a FFF7FEFF 		bl	HAL_GPIO_DeInit
 359              	.LVL14:
 360              	.L16:
 166:Src/stm32f0xx_hal_msp.c **** 
 167:Src/stm32f0xx_hal_msp.c ****   /* USER CODE BEGIN USART1_MspDeInit 1 */
 168:Src/stm32f0xx_hal_msp.c **** 
 169:Src/stm32f0xx_hal_msp.c ****   /* USER CODE END USART1_MspDeInit 1 */
 170:Src/stm32f0xx_hal_msp.c ****   }
 171:Src/stm32f0xx_hal_msp.c **** 
 172:Src/stm32f0xx_hal_msp.c **** }
 361              		.loc 1 172 0
 362              		@ sp needed
 363 001e 10BD     		pop	{r4, pc}
 364              	.L19:
 365              		.align	2
 366              	.L18:
 367 0020 00380140 		.word	1073821696
 368 0024 00100240 		.word	1073876992
 369 0028 FFBFFFFF 		.word	-16385
 370              		.cfi_endproc
 371              	.LFE39:
 373              		.text
 374              	.Letext0:
 375              		.file 2 "/home/arthurdent/Programs/gcc-arm-none-eabi-6-2017-q1-update/arm-none-eabi/include/machin
 376              		.file 3 "/home/arthurdent/Programs/gcc-arm-none-eabi-6-2017-q1-update/arm-none-eabi/include/sys/_s
 377              		.file 4 "Drivers/CMSIS/Device/ST/STM32F0xx/Include/system_stm32f0xx.h"
 378              		.file 5 "Drivers/CMSIS/Device/ST/STM32F0xx/Include/stm32f030x6.h"
 379              		.file 6 "/home/arthurdent/Programs/gcc-arm-none-eabi-6-2017-q1-update/arm-none-eabi/include/sys/lo
ARM GAS  /tmp/cclFlhYz.s 			page 11


 380              		.file 7 "/home/arthurdent/Programs/gcc-arm-none-eabi-6-2017-q1-update/arm-none-eabi/include/sys/_t
 381              		.file 8 "/home/arthurdent/Programs/gcc-arm-none-eabi-6-2017-q1-update/lib/gcc/arm-none-eabi/6.3.1/
 382              		.file 9 "/home/arthurdent/Programs/gcc-arm-none-eabi-6-2017-q1-update/arm-none-eabi/include/sys/re
 383              		.file 10 "Drivers/STM32F0xx_HAL_Driver/Inc/stm32f0xx_hal_def.h"
 384              		.file 11 "Drivers/STM32F0xx_HAL_Driver/Inc/stm32f0xx_hal_gpio.h"
 385              		.file 12 "Drivers/STM32F0xx_HAL_Driver/Inc/stm32f0xx_hal_dma.h"
 386              		.file 13 "Drivers/STM32F0xx_HAL_Driver/Inc/stm32f0xx_hal_adc.h"
 387              		.file 14 "Drivers/STM32F0xx_HAL_Driver/Inc/stm32f0xx_hal_uart.h"
 388              		.file 15 "Drivers/STM32F0xx_HAL_Driver/Inc/stm32f0xx_hal_cortex.h"
ARM GAS  /tmp/cclFlhYz.s 			page 12

