ARM GAS  /tmp/cc4tUEIX.s 			page 1


   1              		.cpu cortex-m0
   2              		.eabi_attribute 20, 1
   3              		.eabi_attribute 21, 1
   4              		.eabi_attribute 23, 3
   5              		.eabi_attribute 24, 1
   6              		.eabi_attribute 25, 1
   7              		.eabi_attribute 26, 1
   8              		.eabi_attribute 30, 4
   9              		.eabi_attribute 34, 0
  10              		.eabi_attribute 18, 4
  11              		.file	"syscalls.c"
  12              		.text
  13              	.Ltext0:
  14              		.cfi_sections	.debug_frame
  15              		.section	.text._sbrk,"ax",%progbits
  16              		.align	1
  17              		.global	_sbrk
  18              		.syntax unified
  19              		.code	16
  20              		.thumb_func
  21              		.fpu softvfp
  23              	_sbrk:
  24              	.LFB17:
  25              		.file 1 "Src/syscalls.c"
   1:Src/syscalls.c **** /* Support files for GNU libc.  Files in the system namespace go here.
   2:Src/syscalls.c ****    Files in the C namespace (ie those that do not start with an
   3:Src/syscalls.c ****    underscore) go in .c.  */
   4:Src/syscalls.c **** 
   5:Src/syscalls.c **** #include <_ansi.h>
   6:Src/syscalls.c **** #include <sys/types.h>
   7:Src/syscalls.c **** #include <sys/stat.h>
   8:Src/syscalls.c **** #include <sys/fcntl.h>
   9:Src/syscalls.c **** #include <stdio.h>
  10:Src/syscalls.c **** #include <string.h>
  11:Src/syscalls.c **** #include <time.h>
  12:Src/syscalls.c **** #include <sys/time.h>
  13:Src/syscalls.c **** #include <sys/times.h>
  14:Src/syscalls.c **** #include <errno.h>
  15:Src/syscalls.c **** #include <reent.h>
  16:Src/syscalls.c **** #include <unistd.h>
  17:Src/syscalls.c **** #include <sys/wait.h>
  18:Src/syscalls.c **** 
  19:Src/syscalls.c **** #undef errno
  20:Src/syscalls.c **** extern int errno;
  21:Src/syscalls.c **** 
  22:Src/syscalls.c **** #define FreeRTOS
  23:Src/syscalls.c **** #define MAX_STACK_SIZE 0x200
  24:Src/syscalls.c **** 
  25:Src/syscalls.c **** extern int __io_putchar(int ch) __attribute__((weak));
  26:Src/syscalls.c **** extern int __io_getchar(void) __attribute__((weak));
  27:Src/syscalls.c **** 
  28:Src/syscalls.c **** #ifndef FreeRTOS
  29:Src/syscalls.c ****   register char * stack_ptr asm("sp");
  30:Src/syscalls.c **** #endif
  31:Src/syscalls.c **** 
  32:Src/syscalls.c **** 
  33:Src/syscalls.c **** 
ARM GAS  /tmp/cc4tUEIX.s 			page 2


  34:Src/syscalls.c **** 
  35:Src/syscalls.c **** caddr_t _sbrk(int incr)
  36:Src/syscalls.c **** {
  26              		.loc 1 36 0
  27              		.cfi_startproc
  28              		@ args = 0, pretend = 0, frame = 0
  29              		@ frame_needed = 0, uses_anonymous_args = 0
  30              	.LVL0:
  37:Src/syscalls.c **** 	extern char end asm("end");
  38:Src/syscalls.c **** 	static char *heap_end;
  39:Src/syscalls.c **** 	char *prev_heap_end,*min_stack_ptr;
  40:Src/syscalls.c **** 
  41:Src/syscalls.c **** 	if (heap_end == 0)
  31              		.loc 1 41 0
  32 0000 0C4B     		ldr	r3, .L5
  36:Src/syscalls.c **** 	extern char end asm("end");
  33              		.loc 1 36 0
  34 0002 10B5     		push	{r4, lr}
  35              	.LCFI0:
  36              		.cfi_def_cfa_offset 8
  37              		.cfi_offset 4, -8
  38              		.cfi_offset 14, -4
  39              		.loc 1 41 0
  40 0004 1968     		ldr	r1, [r3]
  36:Src/syscalls.c **** 	extern char end asm("end");
  41              		.loc 1 36 0
  42 0006 0200     		movs	r2, r0
  43              		.loc 1 41 0
  44 0008 0029     		cmp	r1, #0
  45 000a 01D1     		bne	.L2
  42:Src/syscalls.c **** 		heap_end = &end;
  46              		.loc 1 42 0
  47 000c 0A49     		ldr	r1, .L5+4
  48 000e 1960     		str	r1, [r3]
  49              	.L2:
  43:Src/syscalls.c **** 
  44:Src/syscalls.c **** 	prev_heap_end = heap_end;
  45:Src/syscalls.c **** 
  46:Src/syscalls.c **** #ifdef FreeRTOS
  47:Src/syscalls.c **** 	/* Use the NVIC offset register to locate the main stack pointer. */
  48:Src/syscalls.c **** 	min_stack_ptr = (char*)(*(unsigned int *)*(unsigned int *)0xE000ED08);
  50              		.loc 1 48 0
  51 0010 0A49     		ldr	r1, .L5+8
  44:Src/syscalls.c **** 
  52              		.loc 1 44 0
  53 0012 1868     		ldr	r0, [r3]
  54              	.LVL1:
  55              		.loc 1 48 0
  56 0014 0968     		ldr	r1, [r1]
  49:Src/syscalls.c **** 	/* Locate the STACK bottom address */
  50:Src/syscalls.c **** 	min_stack_ptr -= MAX_STACK_SIZE;
  57              		.loc 1 50 0
  58 0016 0A4C     		ldr	r4, .L5+12
  48:Src/syscalls.c **** 	/* Locate the STACK bottom address */
  59              		.loc 1 48 0
  60 0018 0968     		ldr	r1, [r1]
  61              	.LVL2:
ARM GAS  /tmp/cc4tUEIX.s 			page 3


  51:Src/syscalls.c **** 
  52:Src/syscalls.c **** 	if (heap_end + incr > min_stack_ptr)
  62              		.loc 1 52 0
  63 001a 8218     		adds	r2, r0, r2
  64              	.LVL3:
  50:Src/syscalls.c **** 
  65              		.loc 1 50 0
  66 001c 0919     		adds	r1, r1, r4
  67              	.LVL4:
  68              		.loc 1 52 0
  69 001e 8A42     		cmp	r2, r1
  70 0020 05D9     		bls	.L3
  53:Src/syscalls.c **** #else
  54:Src/syscalls.c **** 	if (heap_end + incr > stack_ptr)
  55:Src/syscalls.c **** #endif
  56:Src/syscalls.c **** 	{
  57:Src/syscalls.c **** //		write(1, "Heap and stack collision\n", 25);
  58:Src/syscalls.c **** //		abort();
  59:Src/syscalls.c **** 		errno = ENOMEM;
  71              		.loc 1 59 0
  72 0022 0C22     		movs	r2, #12
  60:Src/syscalls.c **** 		return (caddr_t) -1;
  73              		.loc 1 60 0
  74 0024 0120     		movs	r0, #1
  75              	.LVL5:
  59:Src/syscalls.c **** 		return (caddr_t) -1;
  76              		.loc 1 59 0
  77 0026 074B     		ldr	r3, .L5+16
  78              		.loc 1 60 0
  79 0028 4042     		rsbs	r0, r0, #0
  59:Src/syscalls.c **** 		return (caddr_t) -1;
  80              		.loc 1 59 0
  81 002a 1A60     		str	r2, [r3]
  82              	.LVL6:
  83              	.L1:
  61:Src/syscalls.c **** 	}
  62:Src/syscalls.c **** 
  63:Src/syscalls.c **** 	heap_end += incr;
  64:Src/syscalls.c **** 
  65:Src/syscalls.c **** 	return (caddr_t) prev_heap_end;
  66:Src/syscalls.c **** }
  84              		.loc 1 66 0
  85              		@ sp needed
  86 002c 10BD     		pop	{r4, pc}
  87              	.LVL7:
  88              	.L3:
  63:Src/syscalls.c **** 
  89              		.loc 1 63 0
  90 002e 1A60     		str	r2, [r3]
  65:Src/syscalls.c **** }
  91              		.loc 1 65 0
  92 0030 FCE7     		b	.L1
  93              	.L6:
  94 0032 C046     		.align	2
  95              	.L5:
  96 0034 00000000 		.word	.LANCHOR0
  97 0038 00000000 		.word	end
ARM GAS  /tmp/cc4tUEIX.s 			page 4


  98 003c 08ED00E0 		.word	-536810232
  99 0040 00FEFFFF 		.word	-512
 100 0044 00000000 		.word	errno
 101              		.cfi_endproc
 102              	.LFE17:
 104              		.section	.text._gettimeofday,"ax",%progbits
 105              		.align	1
 106              		.global	_gettimeofday
 107              		.syntax unified
 108              		.code	16
 109              		.thumb_func
 110              		.fpu softvfp
 112              	_gettimeofday:
 113              	.LFB18:
  67:Src/syscalls.c **** 
  68:Src/syscalls.c **** /*
  69:Src/syscalls.c ****  * _gettimeofday primitive (Stub function)
  70:Src/syscalls.c ****  * */
  71:Src/syscalls.c **** int _gettimeofday (struct timeval * tp, struct timezone * tzp)
  72:Src/syscalls.c **** {
 114              		.loc 1 72 0
 115              		.cfi_startproc
 116              		@ args = 0, pretend = 0, frame = 0
 117              		@ frame_needed = 0, uses_anonymous_args = 0
 118              		@ link register save eliminated.
 119              	.LVL8:
  73:Src/syscalls.c ****   /* Return fixed data for the timezone.  */
  74:Src/syscalls.c ****   if (tzp)
 120              		.loc 1 74 0
 121 0000 0029     		cmp	r1, #0
 122 0002 02D0     		beq	.L8
  75:Src/syscalls.c ****     {
  76:Src/syscalls.c ****       tzp->tz_minuteswest = 0;
 123              		.loc 1 76 0
 124 0004 0023     		movs	r3, #0
 125 0006 0B60     		str	r3, [r1]
  77:Src/syscalls.c ****       tzp->tz_dsttime = 0;
 126              		.loc 1 77 0
 127 0008 4B60     		str	r3, [r1, #4]
 128              	.L8:
  78:Src/syscalls.c ****     }
  79:Src/syscalls.c **** 
  80:Src/syscalls.c ****   return 0;
  81:Src/syscalls.c **** }
 129              		.loc 1 81 0
 130 000a 0020     		movs	r0, #0
 131              	.LVL9:
 132              		@ sp needed
 133 000c 7047     		bx	lr
 134              		.cfi_endproc
 135              	.LFE18:
 137              		.section	.text.initialise_monitor_handles,"ax",%progbits
 138              		.align	1
 139              		.global	initialise_monitor_handles
 140              		.syntax unified
 141              		.code	16
 142              		.thumb_func
ARM GAS  /tmp/cc4tUEIX.s 			page 5


 143              		.fpu softvfp
 145              	initialise_monitor_handles:
 146              	.LFB19:
  82:Src/syscalls.c **** void initialise_monitor_handles()
  83:Src/syscalls.c **** {
 147              		.loc 1 83 0
 148              		.cfi_startproc
 149              		@ args = 0, pretend = 0, frame = 0
 150              		@ frame_needed = 0, uses_anonymous_args = 0
 151              		@ link register save eliminated.
  84:Src/syscalls.c **** }
 152              		.loc 1 84 0
 153              		@ sp needed
 154 0000 7047     		bx	lr
 155              		.cfi_endproc
 156              	.LFE19:
 158              		.section	.text._getpid,"ax",%progbits
 159              		.align	1
 160              		.global	_getpid
 161              		.syntax unified
 162              		.code	16
 163              		.thumb_func
 164              		.fpu softvfp
 166              	_getpid:
 167              	.LFB20:
  85:Src/syscalls.c **** 
  86:Src/syscalls.c **** int _getpid(void)
  87:Src/syscalls.c **** {
 168              		.loc 1 87 0
 169              		.cfi_startproc
 170              		@ args = 0, pretend = 0, frame = 0
 171              		@ frame_needed = 0, uses_anonymous_args = 0
 172              		@ link register save eliminated.
  88:Src/syscalls.c **** 	return 1;
  89:Src/syscalls.c **** }
 173              		.loc 1 89 0
 174 0000 0120     		movs	r0, #1
 175              		@ sp needed
 176 0002 7047     		bx	lr
 177              		.cfi_endproc
 178              	.LFE20:
 180              		.section	.text._kill,"ax",%progbits
 181              		.align	1
 182              		.global	_kill
 183              		.syntax unified
 184              		.code	16
 185              		.thumb_func
 186              		.fpu softvfp
 188              	_kill:
 189              	.LFB21:
  90:Src/syscalls.c **** 
  91:Src/syscalls.c **** int _kill(int pid, int sig)
  92:Src/syscalls.c **** {
 190              		.loc 1 92 0
 191              		.cfi_startproc
 192              		@ args = 0, pretend = 0, frame = 0
 193              		@ frame_needed = 0, uses_anonymous_args = 0
ARM GAS  /tmp/cc4tUEIX.s 			page 6


 194              		@ link register save eliminated.
 195              	.LVL10:
  93:Src/syscalls.c **** 	errno = EINVAL;
 196              		.loc 1 93 0
 197 0000 1622     		movs	r2, #22
  94:Src/syscalls.c **** 	return -1;
  95:Src/syscalls.c **** }
 198              		.loc 1 95 0
 199 0002 0120     		movs	r0, #1
 200              	.LVL11:
  93:Src/syscalls.c **** 	errno = EINVAL;
 201              		.loc 1 93 0
 202 0004 014B     		ldr	r3, .L15
 203              		.loc 1 95 0
 204 0006 4042     		rsbs	r0, r0, #0
  93:Src/syscalls.c **** 	errno = EINVAL;
 205              		.loc 1 93 0
 206 0008 1A60     		str	r2, [r3]
 207              		.loc 1 95 0
 208              		@ sp needed
 209 000a 7047     		bx	lr
 210              	.L16:
 211              		.align	2
 212              	.L15:
 213 000c 00000000 		.word	errno
 214              		.cfi_endproc
 215              	.LFE21:
 217              		.section	.text._exit,"ax",%progbits
 218              		.align	1
 219              		.global	_exit
 220              		.syntax unified
 221              		.code	16
 222              		.thumb_func
 223              		.fpu softvfp
 225              	_exit:
 226              	.LFB22:
  96:Src/syscalls.c **** 
  97:Src/syscalls.c **** void _exit (int status)
  98:Src/syscalls.c **** {
 227              		.loc 1 98 0
 228              		.cfi_startproc
 229              		@ Volatile: function does not return.
 230              		@ args = 0, pretend = 0, frame = 0
 231              		@ frame_needed = 0, uses_anonymous_args = 0
 232              		@ link register save eliminated.
 233              	.LVL12:
 234              	.LBB4:
 235              	.LBB5:
  93:Src/syscalls.c **** 	return -1;
 236              		.loc 1 93 0
 237 0000 1622     		movs	r2, #22
 238 0002 014B     		ldr	r3, .L19
 239 0004 1A60     		str	r2, [r3]
 240              	.L18:
 241 0006 FEE7     		b	.L18
 242              	.L20:
 243              		.align	2
ARM GAS  /tmp/cc4tUEIX.s 			page 7


 244              	.L19:
 245 0008 00000000 		.word	errno
 246              	.LBE5:
 247              	.LBE4:
 248              		.cfi_endproc
 249              	.LFE22:
 251              		.section	.text._write,"ax",%progbits
 252              		.align	1
 253              		.global	_write
 254              		.syntax unified
 255              		.code	16
 256              		.thumb_func
 257              		.fpu softvfp
 259              	_write:
 260              	.LFB23:
  99:Src/syscalls.c **** 	_kill(status, -1);
 100:Src/syscalls.c **** 	while (1) {}
 101:Src/syscalls.c **** }
 102:Src/syscalls.c **** 
 103:Src/syscalls.c **** int _write(int file, char *ptr, int len)
 104:Src/syscalls.c **** {
 261              		.loc 1 104 0
 262              		.cfi_startproc
 263              		@ args = 0, pretend = 0, frame = 0
 264              		@ frame_needed = 0, uses_anonymous_args = 0
 265              	.LVL13:
 266 0000 70B5     		push	{r4, r5, r6, lr}
 267              	.LCFI1:
 268              		.cfi_def_cfa_offset 16
 269              		.cfi_offset 4, -16
 270              		.cfi_offset 5, -12
 271              		.cfi_offset 6, -8
 272              		.cfi_offset 14, -4
 273              		.loc 1 104 0
 274 0002 0E00     		movs	r6, r1
 275 0004 1500     		movs	r5, r2
 105:Src/syscalls.c **** 	int DataIdx;
 106:Src/syscalls.c **** 
 107:Src/syscalls.c **** 		for (DataIdx = 0; DataIdx < len; DataIdx++)
 276              		.loc 1 107 0
 277 0006 0C00     		movs	r4, r1
 278              	.LVL14:
 279              	.L22:
 280              		.loc 1 107 0 is_stmt 0 discriminator 1
 281 0008 A31B     		subs	r3, r4, r6
 282 000a 9D42     		cmp	r5, r3
 283 000c 01DC     		bgt	.L23
 108:Src/syscalls.c **** 		{
 109:Src/syscalls.c **** 		   __io_putchar( *ptr++ );
 110:Src/syscalls.c **** 		}
 111:Src/syscalls.c **** 	return len;
 112:Src/syscalls.c **** }
 284              		.loc 1 112 0 is_stmt 1
 285 000e 2800     		movs	r0, r5
 286              		@ sp needed
 287              	.LVL15:
 288              	.LVL16:
ARM GAS  /tmp/cc4tUEIX.s 			page 8


 289 0010 70BD     		pop	{r4, r5, r6, pc}
 290              	.LVL17:
 291              	.L23:
 109:Src/syscalls.c **** 		}
 292              		.loc 1 109 0 discriminator 3
 293 0012 2078     		ldrb	r0, [r4]
 294 0014 FFF7FEFF 		bl	__io_putchar
 295              	.LVL18:
 296 0018 0134     		adds	r4, r4, #1
 297              	.LVL19:
 298 001a F5E7     		b	.L22
 299              		.cfi_endproc
 300              	.LFE23:
 302              		.section	.text._close,"ax",%progbits
 303              		.align	1
 304              		.global	_close
 305              		.syntax unified
 306              		.code	16
 307              		.thumb_func
 308              		.fpu softvfp
 310              	_close:
 311              	.LFB24:
 113:Src/syscalls.c **** 
 114:Src/syscalls.c **** int _close(int file)
 115:Src/syscalls.c **** {
 312              		.loc 1 115 0
 313              		.cfi_startproc
 314              		@ args = 0, pretend = 0, frame = 0
 315              		@ frame_needed = 0, uses_anonymous_args = 0
 316              		@ link register save eliminated.
 317              	.LVL20:
 116:Src/syscalls.c **** 	return -1;
 117:Src/syscalls.c **** }
 318              		.loc 1 117 0
 319 0000 0120     		movs	r0, #1
 320              	.LVL21:
 321              		@ sp needed
 322 0002 4042     		rsbs	r0, r0, #0
 323 0004 7047     		bx	lr
 324              		.cfi_endproc
 325              	.LFE24:
 327              		.section	.text._fstat,"ax",%progbits
 328              		.align	1
 329              		.global	_fstat
 330              		.syntax unified
 331              		.code	16
 332              		.thumb_func
 333              		.fpu softvfp
 335              	_fstat:
 336              	.LFB25:
 118:Src/syscalls.c **** 
 119:Src/syscalls.c **** int _fstat(int file, struct stat *st)
 120:Src/syscalls.c **** {
 337              		.loc 1 120 0
 338              		.cfi_startproc
 339              		@ args = 0, pretend = 0, frame = 0
 340              		@ frame_needed = 0, uses_anonymous_args = 0
ARM GAS  /tmp/cc4tUEIX.s 			page 9


 341              		@ link register save eliminated.
 342              	.LVL22:
 121:Src/syscalls.c **** 	st->st_mode = S_IFCHR;
 343              		.loc 1 121 0
 344 0000 8023     		movs	r3, #128
 345 0002 9B01     		lsls	r3, r3, #6
 122:Src/syscalls.c **** 	return 0;
 123:Src/syscalls.c **** }
 346              		.loc 1 123 0
 347 0004 0020     		movs	r0, #0
 348              	.LVL23:
 121:Src/syscalls.c **** 	st->st_mode = S_IFCHR;
 349              		.loc 1 121 0
 350 0006 4B60     		str	r3, [r1, #4]
 351              		.loc 1 123 0
 352              		@ sp needed
 353 0008 7047     		bx	lr
 354              		.cfi_endproc
 355              	.LFE25:
 357              		.section	.text._isatty,"ax",%progbits
 358              		.align	1
 359              		.global	_isatty
 360              		.syntax unified
 361              		.code	16
 362              		.thumb_func
 363              		.fpu softvfp
 365              	_isatty:
 366              	.LFB26:
 124:Src/syscalls.c **** 
 125:Src/syscalls.c **** int _isatty(int file)
 126:Src/syscalls.c **** {
 367              		.loc 1 126 0
 368              		.cfi_startproc
 369              		@ args = 0, pretend = 0, frame = 0
 370              		@ frame_needed = 0, uses_anonymous_args = 0
 371              		@ link register save eliminated.
 372              	.LVL24:
 127:Src/syscalls.c **** 	return 1;
 128:Src/syscalls.c **** }
 373              		.loc 1 128 0
 374 0000 0120     		movs	r0, #1
 375              	.LVL25:
 376              		@ sp needed
 377 0002 7047     		bx	lr
 378              		.cfi_endproc
 379              	.LFE26:
 381              		.section	.text._lseek,"ax",%progbits
 382              		.align	1
 383              		.global	_lseek
 384              		.syntax unified
 385              		.code	16
 386              		.thumb_func
 387              		.fpu softvfp
 389              	_lseek:
 390              	.LFB27:
 129:Src/syscalls.c **** 
 130:Src/syscalls.c **** int _lseek(int file, int ptr, int dir)
ARM GAS  /tmp/cc4tUEIX.s 			page 10


 131:Src/syscalls.c **** {
 391              		.loc 1 131 0
 392              		.cfi_startproc
 393              		@ args = 0, pretend = 0, frame = 0
 394              		@ frame_needed = 0, uses_anonymous_args = 0
 395              		@ link register save eliminated.
 396              	.LVL26:
 132:Src/syscalls.c **** 	return 0;
 133:Src/syscalls.c **** }
 397              		.loc 1 133 0
 398 0000 0020     		movs	r0, #0
 399              	.LVL27:
 400              		@ sp needed
 401 0002 7047     		bx	lr
 402              		.cfi_endproc
 403              	.LFE27:
 405              		.section	.text._read,"ax",%progbits
 406              		.align	1
 407              		.global	_read
 408              		.syntax unified
 409              		.code	16
 410              		.thumb_func
 411              		.fpu softvfp
 413              	_read:
 414              	.LFB28:
 134:Src/syscalls.c **** 
 135:Src/syscalls.c **** int _read(int file, char *ptr, int len)
 136:Src/syscalls.c **** {
 415              		.loc 1 136 0
 416              		.cfi_startproc
 417              		@ args = 0, pretend = 0, frame = 0
 418              		@ frame_needed = 0, uses_anonymous_args = 0
 419              	.LVL28:
 420 0000 70B5     		push	{r4, r5, r6, lr}
 421              	.LCFI2:
 422              		.cfi_def_cfa_offset 16
 423              		.cfi_offset 4, -16
 424              		.cfi_offset 5, -12
 425              		.cfi_offset 6, -8
 426              		.cfi_offset 14, -4
 427              		.loc 1 136 0
 428 0002 0E00     		movs	r6, r1
 429 0004 1500     		movs	r5, r2
 137:Src/syscalls.c **** 	int DataIdx;
 138:Src/syscalls.c **** 
 139:Src/syscalls.c **** 	for (DataIdx = 0; DataIdx < len; DataIdx++)
 430              		.loc 1 139 0
 431 0006 0C00     		movs	r4, r1
 432              	.LVL29:
 433              	.L29:
 434              		.loc 1 139 0 is_stmt 0 discriminator 1
 435 0008 A31B     		subs	r3, r4, r6
 436 000a 9D42     		cmp	r5, r3
 437 000c 01DC     		bgt	.L30
 140:Src/syscalls.c **** 	{
 141:Src/syscalls.c **** 	  *ptr++ = __io_getchar();
 142:Src/syscalls.c **** 	}
ARM GAS  /tmp/cc4tUEIX.s 			page 11


 143:Src/syscalls.c **** 
 144:Src/syscalls.c ****    return len;
 145:Src/syscalls.c **** }
 438              		.loc 1 145 0 is_stmt 1
 439 000e 2800     		movs	r0, r5
 440              		@ sp needed
 441              	.LVL30:
 442              	.LVL31:
 443 0010 70BD     		pop	{r4, r5, r6, pc}
 444              	.LVL32:
 445              	.L30:
 141:Src/syscalls.c **** 	}
 446              		.loc 1 141 0 discriminator 3
 447 0012 FFF7FEFF 		bl	__io_getchar
 448              	.LVL33:
 449 0016 2070     		strb	r0, [r4]
 450              	.LVL34:
 451 0018 0134     		adds	r4, r4, #1
 452              	.LVL35:
 453 001a F5E7     		b	.L29
 454              		.cfi_endproc
 455              	.LFE28:
 457              		.section	.text._open,"ax",%progbits
 458              		.align	1
 459              		.global	_open
 460              		.syntax unified
 461              		.code	16
 462              		.thumb_func
 463              		.fpu softvfp
 465              	_open:
 466              	.LFB29:
 146:Src/syscalls.c **** 
 147:Src/syscalls.c **** int _open(char *path, int flags, ...)
 148:Src/syscalls.c **** {
 467              		.loc 1 148 0
 468              		.cfi_startproc
 469              		@ args = 4, pretend = 12, frame = 0
 470              		@ frame_needed = 0, uses_anonymous_args = 1
 471              		@ link register save eliminated.
 472              	.LVL36:
 149:Src/syscalls.c **** 	/* Pretend like we always fail */
 150:Src/syscalls.c **** 	return -1;
 151:Src/syscalls.c **** }
 473              		.loc 1 151 0
 474 0000 0120     		movs	r0, #1
 475              	.LVL37:
 148:Src/syscalls.c **** 	/* Pretend like we always fail */
 476              		.loc 1 148 0
 477 0002 0EB4     		push	{r1, r2, r3}
 478              	.LCFI3:
 479              		.cfi_def_cfa_offset 12
 480              		.loc 1 151 0
 481 0004 4042     		rsbs	r0, r0, #0
 482              		@ sp needed
 483 0006 03B0     		add	sp, sp, #12
 484 0008 7047     		bx	lr
 485              		.cfi_endproc
ARM GAS  /tmp/cc4tUEIX.s 			page 12


 486              	.LFE29:
 488              		.section	.text._wait,"ax",%progbits
 489              		.align	1
 490              		.global	_wait
 491              		.syntax unified
 492              		.code	16
 493              		.thumb_func
 494              		.fpu softvfp
 496              	_wait:
 497              	.LFB30:
 152:Src/syscalls.c **** 
 153:Src/syscalls.c **** int _wait(int *status)
 154:Src/syscalls.c **** {
 498              		.loc 1 154 0
 499              		.cfi_startproc
 500              		@ args = 0, pretend = 0, frame = 0
 501              		@ frame_needed = 0, uses_anonymous_args = 0
 502              		@ link register save eliminated.
 503              	.LVL38:
 155:Src/syscalls.c **** 	errno = ECHILD;
 504              		.loc 1 155 0
 505 0000 0A22     		movs	r2, #10
 156:Src/syscalls.c **** 	return -1;
 157:Src/syscalls.c **** }
 506              		.loc 1 157 0
 507 0002 0120     		movs	r0, #1
 508              	.LVL39:
 155:Src/syscalls.c **** 	errno = ECHILD;
 509              		.loc 1 155 0
 510 0004 014B     		ldr	r3, .L33
 511              		.loc 1 157 0
 512 0006 4042     		rsbs	r0, r0, #0
 155:Src/syscalls.c **** 	errno = ECHILD;
 513              		.loc 1 155 0
 514 0008 1A60     		str	r2, [r3]
 515              		.loc 1 157 0
 516              		@ sp needed
 517 000a 7047     		bx	lr
 518              	.L34:
 519              		.align	2
 520              	.L33:
 521 000c 00000000 		.word	errno
 522              		.cfi_endproc
 523              	.LFE30:
 525              		.section	.text._unlink,"ax",%progbits
 526              		.align	1
 527              		.global	_unlink
 528              		.syntax unified
 529              		.code	16
 530              		.thumb_func
 531              		.fpu softvfp
 533              	_unlink:
 534              	.LFB31:
 158:Src/syscalls.c **** 
 159:Src/syscalls.c **** int _unlink(char *name)
 160:Src/syscalls.c **** {
 535              		.loc 1 160 0
ARM GAS  /tmp/cc4tUEIX.s 			page 13


 536              		.cfi_startproc
 537              		@ args = 0, pretend = 0, frame = 0
 538              		@ frame_needed = 0, uses_anonymous_args = 0
 539              		@ link register save eliminated.
 540              	.LVL40:
 161:Src/syscalls.c **** 	errno = ENOENT;
 541              		.loc 1 161 0
 542 0000 0222     		movs	r2, #2
 162:Src/syscalls.c **** 	return -1;
 163:Src/syscalls.c **** }
 543              		.loc 1 163 0
 544 0002 0120     		movs	r0, #1
 545              	.LVL41:
 161:Src/syscalls.c **** 	errno = ENOENT;
 546              		.loc 1 161 0
 547 0004 014B     		ldr	r3, .L36
 548              		.loc 1 163 0
 549 0006 4042     		rsbs	r0, r0, #0
 161:Src/syscalls.c **** 	errno = ENOENT;
 550              		.loc 1 161 0
 551 0008 1A60     		str	r2, [r3]
 552              		.loc 1 163 0
 553              		@ sp needed
 554 000a 7047     		bx	lr
 555              	.L37:
 556              		.align	2
 557              	.L36:
 558 000c 00000000 		.word	errno
 559              		.cfi_endproc
 560              	.LFE31:
 562              		.section	.text._times,"ax",%progbits
 563              		.align	1
 564              		.global	_times
 565              		.syntax unified
 566              		.code	16
 567              		.thumb_func
 568              		.fpu softvfp
 570              	_times:
 571              	.LFB32:
 164:Src/syscalls.c **** 
 165:Src/syscalls.c **** int _times(struct tms *buf)
 166:Src/syscalls.c **** {
 572              		.loc 1 166 0
 573              		.cfi_startproc
 574              		@ args = 0, pretend = 0, frame = 0
 575              		@ frame_needed = 0, uses_anonymous_args = 0
 576              		@ link register save eliminated.
 577              	.LVL42:
 167:Src/syscalls.c **** 	return -1;
 168:Src/syscalls.c **** }
 578              		.loc 1 168 0
 579 0000 0120     		movs	r0, #1
 580              	.LVL43:
 581              		@ sp needed
 582 0002 4042     		rsbs	r0, r0, #0
 583 0004 7047     		bx	lr
 584              		.cfi_endproc
ARM GAS  /tmp/cc4tUEIX.s 			page 14


 585              	.LFE32:
 587              		.section	.text._stat,"ax",%progbits
 588              		.align	1
 589              		.global	_stat
 590              		.syntax unified
 591              		.code	16
 592              		.thumb_func
 593              		.fpu softvfp
 595              	_stat:
 596              	.LFB33:
 169:Src/syscalls.c **** 
 170:Src/syscalls.c **** int _stat(char *file, struct stat *st)
 171:Src/syscalls.c **** {
 597              		.loc 1 171 0
 598              		.cfi_startproc
 599              		@ args = 0, pretend = 0, frame = 0
 600              		@ frame_needed = 0, uses_anonymous_args = 0
 601              		@ link register save eliminated.
 602              	.LVL44:
 172:Src/syscalls.c **** 	st->st_mode = S_IFCHR;
 603              		.loc 1 172 0
 604 0000 8023     		movs	r3, #128
 605 0002 9B01     		lsls	r3, r3, #6
 173:Src/syscalls.c **** 	return 0;
 174:Src/syscalls.c **** }
 606              		.loc 1 174 0
 607 0004 0020     		movs	r0, #0
 608              	.LVL45:
 172:Src/syscalls.c **** 	st->st_mode = S_IFCHR;
 609              		.loc 1 172 0
 610 0006 4B60     		str	r3, [r1, #4]
 611              		.loc 1 174 0
 612              		@ sp needed
 613 0008 7047     		bx	lr
 614              		.cfi_endproc
 615              	.LFE33:
 617              		.section	.text._link,"ax",%progbits
 618              		.align	1
 619              		.global	_link
 620              		.syntax unified
 621              		.code	16
 622              		.thumb_func
 623              		.fpu softvfp
 625              	_link:
 626              	.LFB34:
 175:Src/syscalls.c **** 
 176:Src/syscalls.c **** int _link(char *old, char *new)
 177:Src/syscalls.c **** {
 627              		.loc 1 177 0
 628              		.cfi_startproc
 629              		@ args = 0, pretend = 0, frame = 0
 630              		@ frame_needed = 0, uses_anonymous_args = 0
 631              		@ link register save eliminated.
 632              	.LVL46:
 178:Src/syscalls.c **** 	errno = EMLINK;
 633              		.loc 1 178 0
 634 0000 1F22     		movs	r2, #31
ARM GAS  /tmp/cc4tUEIX.s 			page 15


 179:Src/syscalls.c **** 	return -1;
 180:Src/syscalls.c **** }
 635              		.loc 1 180 0
 636 0002 0120     		movs	r0, #1
 637              	.LVL47:
 178:Src/syscalls.c **** 	errno = EMLINK;
 638              		.loc 1 178 0
 639 0004 014B     		ldr	r3, .L41
 640              		.loc 1 180 0
 641 0006 4042     		rsbs	r0, r0, #0
 178:Src/syscalls.c **** 	errno = EMLINK;
 642              		.loc 1 178 0
 643 0008 1A60     		str	r2, [r3]
 644              		.loc 1 180 0
 645              		@ sp needed
 646 000a 7047     		bx	lr
 647              	.L42:
 648              		.align	2
 649              	.L41:
 650 000c 00000000 		.word	errno
 651              		.cfi_endproc
 652              	.LFE34:
 654              		.section	.text._fork,"ax",%progbits
 655              		.align	1
 656              		.global	_fork
 657              		.syntax unified
 658              		.code	16
 659              		.thumb_func
 660              		.fpu softvfp
 662              	_fork:
 663              	.LFB35:
 181:Src/syscalls.c **** 
 182:Src/syscalls.c **** int _fork(void)
 183:Src/syscalls.c **** {
 664              		.loc 1 183 0
 665              		.cfi_startproc
 666              		@ args = 0, pretend = 0, frame = 0
 667              		@ frame_needed = 0, uses_anonymous_args = 0
 668              		@ link register save eliminated.
 184:Src/syscalls.c **** 	errno = EAGAIN;
 669              		.loc 1 184 0
 670 0000 0B22     		movs	r2, #11
 185:Src/syscalls.c **** 	return -1;
 186:Src/syscalls.c **** }
 671              		.loc 1 186 0
 672 0002 0120     		movs	r0, #1
 184:Src/syscalls.c **** 	errno = EAGAIN;
 673              		.loc 1 184 0
 674 0004 014B     		ldr	r3, .L44
 675              		.loc 1 186 0
 676 0006 4042     		rsbs	r0, r0, #0
 184:Src/syscalls.c **** 	errno = EAGAIN;
 677              		.loc 1 184 0
 678 0008 1A60     		str	r2, [r3]
 679              		.loc 1 186 0
 680              		@ sp needed
 681 000a 7047     		bx	lr
ARM GAS  /tmp/cc4tUEIX.s 			page 16


 682              	.L45:
 683              		.align	2
 684              	.L44:
 685 000c 00000000 		.word	errno
 686              		.cfi_endproc
 687              	.LFE35:
 689              		.section	.text._execve,"ax",%progbits
 690              		.align	1
 691              		.global	_execve
 692              		.syntax unified
 693              		.code	16
 694              		.thumb_func
 695              		.fpu softvfp
 697              	_execve:
 698              	.LFB36:
 187:Src/syscalls.c **** 
 188:Src/syscalls.c **** int _execve(char *name, char **argv, char **env)
 189:Src/syscalls.c **** {
 699              		.loc 1 189 0
 700              		.cfi_startproc
 701              		@ args = 0, pretend = 0, frame = 0
 702              		@ frame_needed = 0, uses_anonymous_args = 0
 703              		@ link register save eliminated.
 704              	.LVL48:
 190:Src/syscalls.c **** 	errno = ENOMEM;
 705              		.loc 1 190 0
 706 0000 0C22     		movs	r2, #12
 707              	.LVL49:
 191:Src/syscalls.c **** 	return -1;
 192:Src/syscalls.c **** }
 708              		.loc 1 192 0
 709 0002 0120     		movs	r0, #1
 710              	.LVL50:
 190:Src/syscalls.c **** 	errno = ENOMEM;
 711              		.loc 1 190 0
 712 0004 014B     		ldr	r3, .L47
 713              		.loc 1 192 0
 714 0006 4042     		rsbs	r0, r0, #0
 190:Src/syscalls.c **** 	errno = ENOMEM;
 715              		.loc 1 190 0
 716 0008 1A60     		str	r2, [r3]
 717              		.loc 1 192 0
 718              		@ sp needed
 719 000a 7047     		bx	lr
 720              	.L48:
 721              		.align	2
 722              	.L47:
 723 000c 00000000 		.word	errno
 724              		.cfi_endproc
 725              	.LFE36:
 727              		.section	.bss.heap_end.5995,"aw",%nobits
 728              		.align	2
 729              		.set	.LANCHOR0,. + 0
 732              	heap_end.5995:
 733 0000 00000000 		.space	4
 734              		.weak	__io_getchar
 735              		.weak	__io_putchar
ARM GAS  /tmp/cc4tUEIX.s 			page 17


 736              		.text
 737              	.Letext0:
 738              		.file 2 "/home/arthurdent/Programs/gcc-arm-none-eabi-6-2017-q1-update/arm-none-eabi/include/machin
 739              		.file 3 "/home/arthurdent/Programs/gcc-arm-none-eabi-6-2017-q1-update/arm-none-eabi/include/sys/lo
 740              		.file 4 "/home/arthurdent/Programs/gcc-arm-none-eabi-6-2017-q1-update/arm-none-eabi/include/sys/_t
 741              		.file 5 "/home/arthurdent/Programs/gcc-arm-none-eabi-6-2017-q1-update/lib/gcc/arm-none-eabi/6.3.1/
 742              		.file 6 "/home/arthurdent/Programs/gcc-arm-none-eabi-6-2017-q1-update/arm-none-eabi/include/sys/_t
 743              		.file 7 "/home/arthurdent/Programs/gcc-arm-none-eabi-6-2017-q1-update/arm-none-eabi/include/sys/ty
 744              		.file 8 "/home/arthurdent/Programs/gcc-arm-none-eabi-6-2017-q1-update/arm-none-eabi/include/sys/re
 745              		.file 9 "/home/arthurdent/Programs/gcc-arm-none-eabi-6-2017-q1-update/arm-none-eabi/include/time.h
 746              		.file 10 "/home/arthurdent/Programs/gcc-arm-none-eabi-6-2017-q1-update/arm-none-eabi/include/sys/s
 747              		.file 11 "/home/arthurdent/Programs/gcc-arm-none-eabi-6-2017-q1-update/arm-none-eabi/include/sys/t
 748              		.file 12 "/home/arthurdent/Programs/gcc-arm-none-eabi-6-2017-q1-update/arm-none-eabi/include/sys/t
 749              		.file 13 "/home/arthurdent/Programs/gcc-arm-none-eabi-6-2017-q1-update/arm-none-eabi/include/sys/e
 750              		.file 14 "/home/arthurdent/Programs/gcc-arm-none-eabi-6-2017-q1-update/arm-none-eabi/include/sys/u
 751              		.file 15 "/home/arthurdent/Programs/gcc-arm-none-eabi-6-2017-q1-update/arm-none-eabi/include/sys/w
ARM GAS  /tmp/cc4tUEIX.s 			page 18

